; Function Attrs: mustprogress uwtable
define void @_ZN6Handle17mouseReleaseEventEP24QGraphicsSceneMouseEvent(ptr noundef nonnull align 8 dereferenceable(64) %0, ptr nocapture noundef readnone %1) unnamed_addr #0 align 2 personality ptr @__gxx_personality_v0 {
  %3 = alloca %class.QCursor, align 8
  %4 = getelementptr inbounds i8, ptr %0, i64 16
  call void @_ZN7QCursorC1EN2Qt11CursorShapeE(ptr noundef nonnull align 8 dereferenceable(8) %3, i32 noundef 17)
  invoke void @_ZN13QGraphicsItem9setCursorERK7QCursor(ptr noundef nonnull align 8 dereferenceable(16) %4, ptr noundef nonnull align 8 dereferenceable(8) %3)
          to label %5 unwind label %6

5:                                                ; preds = %2
  call void @_ZN7QCursorD1Ev(ptr noundef nonnull align 8 dereferenceable(8) %3) #13
  call void @_ZN6Handle14handleReleasedEv(ptr noundef nonnull align 8 dereferenceable(64) %0)
  ret void

6:                                                ; preds = %2
  %7 = landingpad { ptr, i32 }
          cleanup
  call void @_ZN7QCursorD1Ev(ptr noundef nonnull align 8 dereferenceable(8) %3) #13
  resume { ptr, i32 } %7
}